target datalayout = "e-m:e-p270:32:32-p271:32:32-p272:64:64-i64:64-i128:128-f80:128-n8:16:32:64-S128"
target triple = "x86_64-pc-linux-gnu"

%"class.pxrInternal_v0_24__pxrReserved__::GfMatrix4d" = type { %"class.pxrInternal_v0_24__pxrReserved__::GfMatrixData" }
%"class.pxrInternal_v0_24__pxrReserved__::GfMatrixData" = type { [16 x double] }
%"class.pxrInternal_v0_24__pxrReserved__::GfVec4f" = type { [4 x float] }

; Function Attrs: mustprogress nounwind uwtable
define linkonce_odr void @_ZN32pxrInternal_v0_24__pxrReserved__7GfVec4fC2Effff(ptr noundef nonnull align 4 dereferenceable(16) %0, float noundef %1, float noundef %2, float noundef %3, float noundef %4) unnamed_addr #2 comdat align 2 {
  %6 = alloca ptr, align 8
  %7 = alloca float, align 4
  %8 = alloca float, align 4
  %9 = alloca float, align 4
  %10 = alloca float, align 4
  store ptr %0, ptr %6, align 8
  store float %1, ptr %7, align 4
  store float %2, ptr %8, align 4
  store float %3, ptr %9, align 4
  store float %4, ptr %10, align 4
  %11 = load ptr, ptr %6, align 8
  %12 = getelementptr inbounds nuw %"class.pxrInternal_v0_24__pxrReserved__::GfVec4f", ptr %11, i32 0, i32 0
  %13 = load float, ptr %7, align 4
  store float %13, ptr %12, align 4
  %14 = getelementptr inbounds float, ptr %12, i64 1
  %15 = load float, ptr %8, align 4
  store float %15, ptr %14, align 4
  %16 = getelementptr inbounds float, ptr %12, i64 2
  %17 = load float, ptr %9, align 4
  store float %17, ptr %16, align 4
  %18 = getelementptr inbounds float, ptr %12, i64 3
  %19 = load float, ptr %10, align 4
  store float %19, ptr %18, align 4
  ret void
}

; Function Attrs: mustprogress nounwind uwtable
define linkonce_odr noundef ptr @_ZNK32pxrInternal_v0_24__pxrReserved__12GfMatrixDataIdLi4ELi4EEixEi(ptr noundef nonnull align 8 dereferenceable(128) %0, i32 noundef %1) #2 comdat align 2 {
  %3 = alloca ptr, align 8
  %4 = alloca i32, align 4
  store ptr %0, ptr %3, align 8
  store i32 %1, ptr %4, align 4
  %5 = load ptr, ptr %3, align 8
  %6 = getelementptr inbounds nuw %"class.pxrInternal_v0_24__pxrReserved__::GfMatrixData", ptr %5, i32 0, i32 0
  %7 = getelementptr inbounds [16 x double], ptr %6, i64 0, i64 0
  %8 = load i32, ptr %4, align 4
  %9 = mul nsw i32 %8, 4
  %10 = sext i32 %9 to i64
  %11 = getelementptr inbounds double, ptr %7, i64 %10
  ret ptr %11
}

; Function Attrs: mustprogress nounwind uwtable
define linkonce_odr noundef nonnull align 4 dereferenceable(4) ptr @_ZNK32pxrInternal_v0_24__pxrReserved__7GfVec4fixEm(ptr noundef nonnull align 4 dereferenceable(16) %0, i64 noundef %1) #2 comdat align 2 {
  %3 = alloca ptr, align 8
  %4 = alloca i64, align 8
  store ptr %0, ptr %3, align 8
  store i64 %1, ptr %4, align 8
  %5 = load ptr, ptr %3, align 8
  %6 = getelementptr inbounds nuw %"class.pxrInternal_v0_24__pxrReserved__::GfVec4f", ptr %5, i32 0, i32 0
  %7 = load i64, ptr %4, align 8
  %8 = getelementptr inbounds [4 x float], ptr %6, i64 0, i64 %7
  ret ptr %8
}

; Function Attrs: mustprogress uwtable
define { <2 x float>, <2 x float> } @_ZN32pxrInternal_v0_24__pxrReserved__mlERKNS_10GfMatrix4dERKNS_7GfVec4fE(ptr noundef nonnull align 8 dereferenceable(128) %0, ptr noundef nonnull align 4 dereferenceable(16) %1) #0 {
  %3 = alloca %"class.pxrInternal_v0_24__pxrReserved__::GfVec4f", align 4
  %4 = alloca ptr, align 8
  %5 = alloca ptr, align 8
  store ptr %0, ptr %4, align 8
  store ptr %1, ptr %5, align 8
  %6 = load ptr, ptr %5, align 8
  %7 = call noundef nonnull align 4 dereferenceable(4) ptr @_ZNK32pxrInternal_v0_24__pxrReserved__7GfVec4fixEm(ptr noundef nonnull align 4 dereferenceable(16) %6, i64 noundef 0)
  %8 = load float, ptr %7, align 4
  %9 = fpext float %8 to double
  %10 = load ptr, ptr %4, align 8
  %11 = getelementptr inbounds nuw %"class.pxrInternal_v0_24__pxrReserved__::GfMatrix4d", ptr %10, i32 0, i32 0
  %12 = call noundef ptr @_ZNK32pxrInternal_v0_24__pxrReserved__12GfMatrixDataIdLi4ELi4EEixEi(ptr noundef nonnull align 8 dereferenceable(128) %11, i32 noundef 0)
  %13 = getelementptr inbounds double, ptr %12, i64 0
  %14 = load double, ptr %13, align 8
  %15 = load ptr, ptr %5, align 8
  %16 = call noundef nonnull align 4 dereferenceable(4) ptr @_ZNK32pxrInternal_v0_24__pxrReserved__7GfVec4fixEm(ptr noundef nonnull align 4 dereferenceable(16) %15, i64 noundef 1)
  %17 = load float, ptr %16, align 4
  %18 = fpext float %17 to double
  %19 = load ptr, ptr %4, align 8
  %20 = getelementptr inbounds nuw %"class.pxrInternal_v0_24__pxrReserved__::GfMatrix4d", ptr %19, i32 0, i32 0
  %21 = call noundef ptr @_ZNK32pxrInternal_v0_24__pxrReserved__12GfMatrixDataIdLi4ELi4EEixEi(ptr noundef nonnull align 8 dereferenceable(128) %20, i32 noundef 0)
  %22 = getelementptr inbounds double, ptr %21, i64 1
  %23 = load double, ptr %22, align 8
  %24 = fmul double %18, %23
  %25 = call double @llvm.fmuladd.f64(double %9, double %14, double %24)
  %26 = load ptr, ptr %5, align 8
  %27 = call noundef nonnull align 4 dereferenceable(4) ptr @_ZNK32pxrInternal_v0_24__pxrReserved__7GfVec4fixEm(ptr noundef nonnull align 4 dereferenceable(16) %26, i64 noundef 2)
  %28 = load float, ptr %27, align 4
  %29 = fpext float %28 to double
  %30 = load ptr, ptr %4, align 8
  %31 = getelementptr inbounds nuw %"class.pxrInternal_v0_24__pxrReserved__::GfMatrix4d", ptr %30, i32 0, i32 0
  %32 = call noundef ptr @_ZNK32pxrInternal_v0_24__pxrReserved__12GfMatrixDataIdLi4ELi4EEixEi(ptr noundef nonnull align 8 dereferenceable(128) %31, i32 noundef 0)
  %33 = getelementptr inbounds double, ptr %32, i64 2
  %34 = load double, ptr %33, align 8
  %35 = call double @llvm.fmuladd.f64(double %29, double %34, double %25)
  %36 = load ptr, ptr %5, align 8
  %37 = call noundef nonnull align 4 dereferenceable(4) ptr @_ZNK32pxrInternal_v0_24__pxrReserved__7GfVec4fixEm(ptr noundef nonnull align 4 dereferenceable(16) %36, i64 noundef 3)
  %38 = load float, ptr %37, align 4
  %39 = fpext float %38 to double
  %40 = load ptr, ptr %4, align 8
  %41 = getelementptr inbounds nuw %"class.pxrInternal_v0_24__pxrReserved__::GfMatrix4d", ptr %40, i32 0, i32 0
  %42 = call noundef ptr @_ZNK32pxrInternal_v0_24__pxrReserved__12GfMatrixDataIdLi4ELi4EEixEi(ptr noundef nonnull align 8 dereferenceable(128) %41, i32 noundef 0)
  %43 = getelementptr inbounds double, ptr %42, i64 3
  %44 = load double, ptr %43, align 8
  %45 = call double @llvm.fmuladd.f64(double %39, double %44, double %35)
  %46 = fptrunc double %45 to float
  %47 = load ptr, ptr %5, align 8
  %48 = call noundef nonnull align 4 dereferenceable(4) ptr @_ZNK32pxrInternal_v0_24__pxrReserved__7GfVec4fixEm(ptr noundef nonnull align 4 dereferenceable(16) %47, i64 noundef 0)
  %49 = load float, ptr %48, align 4
  %50 = fpext float %49 to double
  %51 = load ptr, ptr %4, align 8
  %52 = getelementptr inbounds nuw %"class.pxrInternal_v0_24__pxrReserved__::GfMatrix4d", ptr %51, i32 0, i32 0
  %53 = call noundef ptr @_ZNK32pxrInternal_v0_24__pxrReserved__12GfMatrixDataIdLi4ELi4EEixEi(ptr noundef nonnull align 8 dereferenceable(128) %52, i32 noundef 1)
  %54 = getelementptr inbounds double, ptr %53, i64 0
  %55 = load double, ptr %54, align 8
  %56 = load ptr, ptr %5, align 8
  %57 = call noundef nonnull align 4 dereferenceable(4) ptr @_ZNK32pxrInternal_v0_24__pxrReserved__7GfVec4fixEm(ptr noundef nonnull align 4 dereferenceable(16) %56, i64 noundef 1)
  %58 = load float, ptr %57, align 4
  %59 = fpext float %58 to double
  %60 = load ptr, ptr %4, align 8
  %61 = getelementptr inbounds nuw %"class.pxrInternal_v0_24__pxrReserved__::GfMatrix4d", ptr %60, i32 0, i32 0
  %62 = call noundef ptr @_ZNK32pxrInternal_v0_24__pxrReserved__12GfMatrixDataIdLi4ELi4EEixEi(ptr noundef nonnull align 8 dereferenceable(128) %61, i32 noundef 1)
  %63 = getelementptr inbounds double, ptr %62, i64 1
  %64 = load double, ptr %63, align 8
  %65 = fmul double %59, %64
  %66 = call double @llvm.fmuladd.f64(double %50, double %55, double %65)
  %67 = load ptr, ptr %5, align 8
  %68 = call noundef nonnull align 4 dereferenceable(4) ptr @_ZNK32pxrInternal_v0_24__pxrReserved__7GfVec4fixEm(ptr noundef nonnull align 4 dereferenceable(16) %67, i64 noundef 2)
  %69 = load float, ptr %68, align 4
  %70 = fpext float %69 to double
  %71 = load ptr, ptr %4, align 8
  %72 = getelementptr inbounds nuw %"class.pxrInternal_v0_24__pxrReserved__::GfMatrix4d", ptr %71, i32 0, i32 0
  %73 = call noundef ptr @_ZNK32pxrInternal_v0_24__pxrReserved__12GfMatrixDataIdLi4ELi4EEixEi(ptr noundef nonnull align 8 dereferenceable(128) %72, i32 noundef 1)
  %74 = getelementptr inbounds double, ptr %73, i64 2
  %75 = load double, ptr %74, align 8
  %76 = call double @llvm.fmuladd.f64(double %70, double %75, double %66)
  %77 = load ptr, ptr %5, align 8
  %78 = call noundef nonnull align 4 dereferenceable(4) ptr @_ZNK32pxrInternal_v0_24__pxrReserved__7GfVec4fixEm(ptr noundef nonnull align 4 dereferenceable(16) %77, i64 noundef 3)
  %79 = load float, ptr %78, align 4
  %80 = fpext float %79 to double
  %81 = load ptr, ptr %4, align 8
  %82 = getelementptr inbounds nuw %"class.pxrInternal_v0_24__pxrReserved__::GfMatrix4d", ptr %81, i32 0, i32 0
  %83 = call noundef ptr @_ZNK32pxrInternal_v0_24__pxrReserved__12GfMatrixDataIdLi4ELi4EEixEi(ptr noundef nonnull align 8 dereferenceable(128) %82, i32 noundef 1)
  %84 = getelementptr inbounds double, ptr %83, i64 3
  %85 = load double, ptr %84, align 8
  %86 = call double @llvm.fmuladd.f64(double %80, double %85, double %76)
  %87 = fptrunc double %86 to float
  %88 = load ptr, ptr %5, align 8
  %89 = call noundef nonnull align 4 dereferenceable(4) ptr @_ZNK32pxrInternal_v0_24__pxrReserved__7GfVec4fixEm(ptr noundef nonnull align 4 dereferenceable(16) %88, i64 noundef 0)
  %90 = load float, ptr %89, align 4
  %91 = fpext float %90 to double
  %92 = load ptr, ptr %4, align 8
  %93 = getelementptr inbounds nuw %"class.pxrInternal_v0_24__pxrReserved__::GfMatrix4d", ptr %92, i32 0, i32 0
  %94 = call noundef ptr @_ZNK32pxrInternal_v0_24__pxrReserved__12GfMatrixDataIdLi4ELi4EEixEi(ptr noundef nonnull align 8 dereferenceable(128) %93, i32 noundef 2)
  %95 = getelementptr inbounds double, ptr %94, i64 0
  %96 = load double, ptr %95, align 8
  %97 = load ptr, ptr %5, align 8
  %98 = call noundef nonnull align 4 dereferenceable(4) ptr @_ZNK32pxrInternal_v0_24__pxrReserved__7GfVec4fixEm(ptr noundef nonnull align 4 dereferenceable(16) %97, i64 noundef 1)
  %99 = load float, ptr %98, align 4
  %100 = fpext float %99 to double
  %101 = load ptr, ptr %4, align 8
  %102 = getelementptr inbounds nuw %"class.pxrInternal_v0_24__pxrReserved__::GfMatrix4d", ptr %101, i32 0, i32 0
  %103 = call noundef ptr @_ZNK32pxrInternal_v0_24__pxrReserved__12GfMatrixDataIdLi4ELi4EEixEi(ptr noundef nonnull align 8 dereferenceable(128) %102, i32 noundef 2)
  %104 = getelementptr inbounds double, ptr %103, i64 1
  %105 = load double, ptr %104, align 8
  %106 = fmul double %100, %105
  %107 = call double @llvm.fmuladd.f64(double %91, double %96, double %106)
  %108 = load ptr, ptr %5, align 8
  %109 = call noundef nonnull align 4 dereferenceable(4) ptr @_ZNK32pxrInternal_v0_24__pxrReserved__7GfVec4fixEm(ptr noundef nonnull align 4 dereferenceable(16) %108, i64 noundef 2)
  %110 = load float, ptr %109, align 4
  %111 = fpext float %110 to double
  %112 = load ptr, ptr %4, align 8
  %113 = getelementptr inbounds nuw %"class.pxrInternal_v0_24__pxrReserved__::GfMatrix4d", ptr %112, i32 0, i32 0
  %114 = call noundef ptr @_ZNK32pxrInternal_v0_24__pxrReserved__12GfMatrixDataIdLi4ELi4EEixEi(ptr noundef nonnull align 8 dereferenceable(128) %113, i32 noundef 2)
  %115 = getelementptr inbounds double, ptr %114, i64 2
  %116 = load double, ptr %115, align 8
  %117 = call double @llvm.fmuladd.f64(double %111, double %116, double %107)
  %118 = load ptr, ptr %5, align 8
  %119 = call noundef nonnull align 4 dereferenceable(4) ptr @_ZNK32pxrInternal_v0_24__pxrReserved__7GfVec4fixEm(ptr noundef nonnull align 4 dereferenceable(16) %118, i64 noundef 3)
  %120 = load float, ptr %119, align 4
  %121 = fpext float %120 to double
  %122 = load ptr, ptr %4, align 8
  %123 = getelementptr inbounds nuw %"class.pxrInternal_v0_24__pxrReserved__::GfMatrix4d", ptr %122, i32 0, i32 0
  %124 = call noundef ptr @_ZNK32pxrInternal_v0_24__pxrReserved__12GfMatrixDataIdLi4ELi4EEixEi(ptr noundef nonnull align 8 dereferenceable(128) %123, i32 noundef 2)
  %125 = getelementptr inbounds double, ptr %124, i64 3
  %126 = load double, ptr %125, align 8
  %127 = call double @llvm.fmuladd.f64(double %121, double %126, double %117)
  %128 = fptrunc double %127 to float
  %129 = load ptr, ptr %5, align 8
  %130 = call noundef nonnull align 4 dereferenceable(4) ptr @_ZNK32pxrInternal_v0_24__pxrReserved__7GfVec4fixEm(ptr noundef nonnull align 4 dereferenceable(16) %129, i64 noundef 0)
  %131 = load float, ptr %130, align 4
  %132 = fpext float %131 to double
  %133 = load ptr, ptr %4, align 8
  %134 = getelementptr inbounds nuw %"class.pxrInternal_v0_24__pxrReserved__::GfMatrix4d", ptr %133, i32 0, i32 0
  %135 = call noundef ptr @_ZNK32pxrInternal_v0_24__pxrReserved__12GfMatrixDataIdLi4ELi4EEixEi(ptr noundef nonnull align 8 dereferenceable(128) %134, i32 noundef 3)
  %136 = getelementptr inbounds double, ptr %135, i64 0
  %137 = load double, ptr %136, align 8
  %138 = load ptr, ptr %5, align 8
  %139 = call noundef nonnull align 4 dereferenceable(4) ptr @_ZNK32pxrInternal_v0_24__pxrReserved__7GfVec4fixEm(ptr noundef nonnull align 4 dereferenceable(16) %138, i64 noundef 1)
  %140 = load float, ptr %139, align 4
  %141 = fpext float %140 to double
  %142 = load ptr, ptr %4, align 8
  %143 = getelementptr inbounds nuw %"class.pxrInternal_v0_24__pxrReserved__::GfMatrix4d", ptr %142, i32 0, i32 0
  %144 = call noundef ptr @_ZNK32pxrInternal_v0_24__pxrReserved__12GfMatrixDataIdLi4ELi4EEixEi(ptr noundef nonnull align 8 dereferenceable(128) %143, i32 noundef 3)
  %145 = getelementptr inbounds double, ptr %144, i64 1
  %146 = load double, ptr %145, align 8
  %147 = fmul double %141, %146
  %148 = call double @llvm.fmuladd.f64(double %132, double %137, double %147)
  %149 = load ptr, ptr %5, align 8
  %150 = call noundef nonnull align 4 dereferenceable(4) ptr @_ZNK32pxrInternal_v0_24__pxrReserved__7GfVec4fixEm(ptr noundef nonnull align 4 dereferenceable(16) %149, i64 noundef 2)
  %151 = load float, ptr %150, align 4
  %152 = fpext float %151 to double
  %153 = load ptr, ptr %4, align 8
  %154 = getelementptr inbounds nuw %"class.pxrInternal_v0_24__pxrReserved__::GfMatrix4d", ptr %153, i32 0, i32 0
  %155 = call noundef ptr @_ZNK32pxrInternal_v0_24__pxrReserved__12GfMatrixDataIdLi4ELi4EEixEi(ptr noundef nonnull align 8 dereferenceable(128) %154, i32 noundef 3)
  %156 = getelementptr inbounds double, ptr %155, i64 2
  %157 = load double, ptr %156, align 8
  %158 = call double @llvm.fmuladd.f64(double %152, double %157, double %148)
  %159 = load ptr, ptr %5, align 8
  %160 = call noundef nonnull align 4 dereferenceable(4) ptr @_ZNK32pxrInternal_v0_24__pxrReserved__7GfVec4fixEm(ptr noundef nonnull align 4 dereferenceable(16) %159, i64 noundef 3)
  %161 = load float, ptr %160, align 4
  %162 = fpext float %161 to double
  %163 = load ptr, ptr %4, align 8
  %164 = getelementptr inbounds nuw %"class.pxrInternal_v0_24__pxrReserved__::GfMatrix4d", ptr %163, i32 0, i32 0
  %165 = call noundef ptr @_ZNK32pxrInternal_v0_24__pxrReserved__12GfMatrixDataIdLi4ELi4EEixEi(ptr noundef nonnull align 8 dereferenceable(128) %164, i32 noundef 3)
  %166 = getelementptr inbounds double, ptr %165, i64 3
  %167 = load double, ptr %166, align 8
  %168 = call double @llvm.fmuladd.f64(double %162, double %167, double %158)
  %169 = fptrunc double %168 to float
  call void @_ZN32pxrInternal_v0_24__pxrReserved__7GfVec4fC2Effff(ptr noundef nonnull align 4 dereferenceable(16) %3, float noundef %46, float noundef %87, float noundef %128, float noundef %169)
  %170 = getelementptr inbounds nuw %"class.pxrInternal_v0_24__pxrReserved__::GfVec4f", ptr %3, i32 0, i32 0
  %171 = load { <2 x float>, <2 x float> }, ptr %170, align 4
  ret { <2 x float>, <2 x float> } %171
}