; Function Attrs: mustprogress nofree norecurse nosync nounwind willreturn memory(argmem: read) uwtable
define { <2 x float>, <2 x float> } @_ZN32pxrInternal_v0_24__pxrReserved__mlERKNS_10GfMatrix4dERKNS_7GfVec4fE(ptr nocapture noundef nonnull readonly align 8 dereferenceable(128) %0, ptr nocapture noundef nonnull readonly align 4 dereferenceable(16) %1) local_unnamed_addr #6 {
  %3 = load float, ptr %1, align 4
  %4 = fpext float %3 to double
  %5 = load double, ptr %0, align 8
  %6 = getelementptr inbounds i8, ptr %1, i64 4
  %7 = load float, ptr %6, align 4
  %8 = fpext float %7 to double
  %9 = getelementptr inbounds i8, ptr %0, i64 8
  %10 = load double, ptr %9, align 8
  %11 = fmul double %10, %8
  %12 = tail call double @llvm.fmuladd.f64(double %4, double %5, double %11)
  %13 = getelementptr inbounds i8, ptr %1, i64 8
  %14 = load float, ptr %13, align 4
  %15 = fpext float %14 to double
  %16 = getelementptr inbounds i8, ptr %0, i64 16
  %17 = load double, ptr %16, align 8
  %18 = tail call double @llvm.fmuladd.f64(double %15, double %17, double %12)
  %19 = getelementptr inbounds i8, ptr %1, i64 12
  %20 = load float, ptr %19, align 4
  %21 = fpext float %20 to double
  %22 = getelementptr inbounds i8, ptr %0, i64 24
  %23 = load double, ptr %22, align 8
  %24 = tail call double @llvm.fmuladd.f64(double %21, double %23, double %18)
  %25 = fptrunc double %24 to float
  %26 = getelementptr inbounds i8, ptr %0, i64 32
  %27 = load double, ptr %26, align 8
  %28 = getelementptr inbounds i8, ptr %0, i64 40
  %29 = load double, ptr %28, align 8
  %30 = fmul double %29, %8
  %31 = tail call double @llvm.fmuladd.f64(double %4, double %27, double %30)
  %32 = getelementptr inbounds i8, ptr %0, i64 48
  %33 = load double, ptr %32, align 8
  %34 = tail call double @llvm.fmuladd.f64(double %15, double %33, double %31)
  %35 = getelementptr inbounds i8, ptr %0, i64 56
  %36 = load double, ptr %35, align 8
  %37 = tail call double @llvm.fmuladd.f64(double %21, double %36, double %34)
  %38 = fptrunc double %37 to float
  %39 = getelementptr inbounds i8, ptr %0, i64 64
  %40 = load double, ptr %39, align 8
  %41 = getelementptr inbounds i8, ptr %0, i64 72
  %42 = load double, ptr %41, align 8
  %43 = fmul double %42, %8
  %44 = tail call double @llvm.fmuladd.f64(double %4, double %40, double %43)
  %45 = getelementptr inbounds i8, ptr %0, i64 80
  %46 = load double, ptr %45, align 8
  %47 = tail call double @llvm.fmuladd.f64(double %15, double %46, double %44)
  %48 = getelementptr inbounds i8, ptr %0, i64 88
  %49 = load double, ptr %48, align 8
  %50 = tail call double @llvm.fmuladd.f64(double %21, double %49, double %47)
  %51 = fptrunc double %50 to float
  %52 = getelementptr inbounds i8, ptr %0, i64 96
  %53 = load double, ptr %52, align 8
  %54 = getelementptr inbounds i8, ptr %0, i64 104
  %55 = load double, ptr %54, align 8
  %56 = fmul double %55, %8
  %57 = tail call double @llvm.fmuladd.f64(double %4, double %53, double %56)
  %58 = getelementptr inbounds i8, ptr %0, i64 112
  %59 = load double, ptr %58, align 8
  %60 = tail call double @llvm.fmuladd.f64(double %15, double %59, double %57)
  %61 = getelementptr inbounds i8, ptr %0, i64 120
  %62 = load double, ptr %61, align 8
  %63 = tail call double @llvm.fmuladd.f64(double %21, double %62, double %60)
  %64 = fptrunc double %63 to float
  %.sroa.0.0.vec.insert = insertelement <2 x float> poison, float %25, i64 0
  %.sroa.0.4.vec.insert = insertelement <2 x float> %.sroa.0.0.vec.insert, float %38, i64 1
  %.sroa.3.8.vec.insert = insertelement <2 x float> poison, float %51, i64 0
  %.sroa.3.12.vec.insert = insertelement <2 x float> %.sroa.3.8.vec.insert, float %64, i64 1
  %.fca.0.insert = insertvalue { <2 x float>, <2 x float> } poison, <2 x float> %.sroa.0.4.vec.insert, 0
  %.fca.1.insert = insertvalue { <2 x float>, <2 x float> } %.fca.0.insert, <2 x float> %.sroa.3.12.vec.insert, 1
  ret { <2 x float>, <2 x float> } %.fca.1.insert
}